target datalayout = "e-m:e-p270:32:32-p271:32:32-p272:64:64-i64:64-i128:128-f80:128-n8:16:32:64-S128"
target triple = "x86_64-pc-linux-gnu"

@g_U = internal constant [26 x i8] c"\01\10\00\00\00\00\00\00\00\00\00\00\00\00\00\00\00\00\08\00\00\00\00\00\00\01", align 16

; Function Attrs: nounwind uwtable
define internal i32 @r_mark_yU(ptr noundef %0) #0 {
  %2 = alloca i32, align 4
  %3 = alloca ptr, align 8
  %4 = alloca i32, align 4
  %5 = alloca i32, align 4
  %6 = alloca i32, align 4
  store ptr %0, ptr %3, align 8
  call void @llvm.lifetime.start.p0(i64 4, ptr %4) #3
  %7 = load ptr, ptr %3, align 8
  %8 = call i32 @r_check_vowel_harmony(ptr noundef %7)
  store i32 %8, ptr %4, align 4
  %9 = load i32, ptr %4, align 4
  %10 = icmp sle i32 %9, 0
  br i1 %10, label %11, label %13

11:                                               ; preds = %1
  %12 = load i32, ptr %4, align 4
  store i32 %12, ptr %2, align 4
  store i32 1, ptr %5, align 4
  br label %14

13:                                               ; preds = %1
  store i32 0, ptr %5, align 4
  br label %14

14:                                               ; preds = %13, %11
  call void @llvm.lifetime.end.p0(i64 4, ptr %4) #3
  %15 = load i32, ptr %5, align 4
  switch i32 %15, label %34 [
    i32 0, label %16
    i32 1, label %32
  ]

16:                                               ; preds = %14
  %17 = load ptr, ptr %3, align 8
  %18 = call i32 @in_grouping_b_U(ptr noundef %17, ptr noundef @g_U, i32 noundef 105, i32 noundef 305, i32 noundef 0)
  %19 = icmp ne i32 %18, 0
  br i1 %19, label %20, label %21

20:                                               ; preds = %16
  store i32 0, ptr %2, align 4
  br label %32

21:                                               ; preds = %16
  call void @llvm.lifetime.start.p0(i64 4, ptr %6) #3
  %22 = load ptr, ptr %3, align 8
  %23 = call i32 @r_mark_suffix_with_optional_y_consonant(ptr noundef %22)
  store i32 %23, ptr %6, align 4
  %24 = load i32, ptr %6, align 4
  %25 = icmp sle i32 %24, 0
  br i1 %25, label %26, label %28

26:                                               ; preds = %21
  %27 = load i32, ptr %6, align 4
  store i32 %27, ptr %2, align 4
  store i32 1, ptr %5, align 4
  br label %29

28:                                               ; preds = %21
  store i32 0, ptr %5, align 4
  br label %29

29:                                               ; preds = %28, %26
  call void @llvm.lifetime.end.p0(i64 4, ptr %6) #3
  %30 = load i32, ptr %5, align 4
  switch i32 %30, label %34 [
    i32 0, label %31
    i32 1, label %32
  ]

31:                                               ; preds = %29
  store i32 1, ptr %2, align 4
  br label %32

32:                                               ; preds = %31, %29, %20, %14
  %33 = load i32, ptr %2, align 4
  ret i32 %33

34:                                               ; preds = %29, %14
  unreachable
}